; Function Attrs: nounwind sspstrong uwtable
define dso_local noundef zeroext i1 @visit_type_AudiodevGenericOptions(ptr noundef %v, ptr noundef %name, ptr noundef %obj, ptr noundef %errp) local_unnamed_addr #0 {
entry:
  %has_in.i = alloca i8, align 1
  %has_out.i = alloca i8, align 1
  %call = tail call zeroext i1 @visit_start_struct(ptr noundef %v, ptr noundef %name, ptr noundef %obj, i64 noundef 16, ptr noundef %errp) #5
  br i1 %call, label %if.end, label %return

if.end:                                           ; preds = %entry
  %0 = load ptr, ptr %obj, align 8
  %tobool.not = icmp eq ptr %0, null
  br i1 %tobool.not, label %if.then1, label %if.end5

if.then1:                                         ; preds = %if.end
  %call2 = tail call zeroext i1 @visit_is_dealloc(ptr noundef %v) #5
  br i1 %call2, label %out_obj.thread, label %if.else

out_obj.thread:                                   ; preds = %if.then1
  tail call void @visit_end_struct(ptr noundef %v, ptr noundef nonnull %obj) #5
  br label %return

if.else:                                          ; preds = %if.then1
  tail call void @__assert_fail(ptr noundef nonnull @.str.7, ptr noundef nonnull @.str.8, i32 noundef 113, ptr noundef nonnull @__PRETTY_FUNCTION__.visit_type_AudiodevGenericOptions) #6
  unreachable

if.end5:                                          ; preds = %if.end
  call void @llvm.lifetime.start.p0(i64 1, ptr nonnull %has_in.i)
  call void @llvm.lifetime.start.p0(i64 1, ptr nonnull %has_out.i)
  %1 = load ptr, ptr %0, align 8
  %tobool.i = icmp ne ptr %1, null
  %frombool.i = zext i1 %tobool.i to i8
  store i8 %frombool.i, ptr %has_in.i, align 1
  %out.i = getelementptr inbounds nuw i8, ptr %0, i64 8
  %2 = load ptr, ptr %out.i, align 8
  %tobool2.i = icmp ne ptr %2, null
  %frombool5.i = zext i1 %tobool2.i to i8
  store i8 %frombool5.i, ptr %has_out.i, align 1
  %call.i = call zeroext i1 @visit_optional(ptr noundef %v, ptr noundef nonnull @.str.9, ptr noundef nonnull %has_in.i) #5
  br i1 %call.i, label %if.then.i, label %if.end9.i

if.then.i:                                        ; preds = %if.end5
  %call7.i = call zeroext i1 @visit_type_AudiodevPerDirectionOptions(ptr noundef %v, ptr noundef nonnull @.str.9, ptr noundef nonnull %0, ptr noundef %errp)
  br i1 %call7.i, label %if.end9.i, label %out_obj.thread16

if.end9.i:                                        ; preds = %if.then.i, %if.end5
  %call10.i = call zeroext i1 @visit_optional(ptr noundef %v, ptr noundef nonnull @.str.10, ptr noundef nonnull %has_out.i) #5
  br i1 %call10.i, label %if.then11.i, label %out_obj

if.then11.i:                                      ; preds = %if.end9.i
  %call13.i = call zeroext i1 @visit_type_AudiodevPerDirectionOptions(ptr noundef %v, ptr noundef nonnull @.str.10, ptr noundef nonnull %out.i, ptr noundef %errp)
  br i1 %call13.i, label %out_obj, label %out_obj.thread16

out_obj.thread16:                                 ; preds = %if.then11.i, %if.then.i
  call void @llvm.lifetime.end.p0(i64 1, ptr nonnull %has_in.i)
  call void @llvm.lifetime.end.p0(i64 1, ptr nonnull %has_out.i)
  call void @visit_end_struct(ptr noundef %v, ptr noundef nonnull %obj) #5
  br label %land.lhs.true

out_obj:                                          ; preds = %if.end9.i, %if.then11.i
  call void @llvm.lifetime.end.p0(i64 1, ptr nonnull %has_in.i)
  call void @llvm.lifetime.end.p0(i64 1, ptr nonnull %has_out.i)
  %call9 = call zeroext i1 @visit_check_struct(ptr noundef %v, ptr noundef %errp) #5
  call void @visit_end_struct(ptr noundef %v, ptr noundef nonnull %obj) #5
  br i1 %call9, label %return, label %land.lhs.true

land.lhs.true:                                    ; preds = %out_obj.thread16, %out_obj
  %call11 = call zeroext i1 @visit_is_input(ptr noundef %v) #5
  br i1 %call11, label %if.then12, label %return

if.then12:                                        ; preds = %land.lhs.true
  %3 = load ptr, ptr %obj, align 8
  call void @qapi_free_AudiodevGenericOptions(ptr noundef %3) #5
  store ptr null, ptr %obj, align 8
  br label %return

return:                                           ; preds = %out_obj.thread, %out_obj, %land.lhs.true, %if.then12, %entry
  %retval.0 = phi i1 [ false, %entry ], [ false, %if.then12 ], [ false, %land.lhs.true ], [ true, %out_obj ], [ true, %out_obj.thread ]
  ret i1 %retval.0
}